; ModuleID = '32/2368.c'
source_filename = "32/2368.c"
target datalayout = "e-m:e-p270:32:32-p271:32:32-p272:64:64-i64:64-f80:128-n8:16:32:64-S128"
target triple = "x86_64-pc-linux-gnu"

@.str = private unnamed_addr constant [3 x i8] c"%d\00", align 1
@.str.1 = private unnamed_addr constant [5 x i8] c"%s%s\00", align 1
@.str.2 = private unnamed_addr constant [2 x i8] c"\0A\00", align 1

; Function Attrs: noinline nounwind uwtable
define dso_local i32 @main() #0 {
  %1 = alloca i32, align 4
  %2 = alloca [100 x i8], align 16
  %3 = alloca [100 x i8], align 16
  %4 = alloca i32, align 4
  %5 = alloca i32, align 4
  %6 = alloca i32, align 4
  %7 = alloca i32, align 4
  %8 = alloca i32, align 4
  %9 = alloca [100 x i32], align 16
  store i32 0, i32* %1, align 4
  store i32 1, i32* %5, align 4
  %10 = call i32 (i8*, ...) @__isoc99_scanf(i8* getelementptr inbounds ([3 x i8], [3 x i8]* @.str, i64 0, i64 0), i32* %4)
  br label %11

11:                                               ; preds = %106, %0
  %12 = load i32, i32* %5, align 4
  %13 = load i32, i32* %4, align 4
  %14 = icmp sle i32 %12, %13
  br i1 %14, label %15, label %110

15:                                               ; preds = %11
  %16 = call i32 (i8*, ...) @__isoc99_scanf(i8* getelementptr inbounds ([5 x i8], [5 x i8]* @.str.1, i64 0, i64 0), [100 x i8]* %2, [100 x i8]* %3)
  %17 = getelementptr inbounds [100 x i8], [100 x i8]* %2, i64 0, i64 0
  %18 = call i64 @strlen(i8* %17) #3
  %19 = trunc i64 %18 to i32
  store i32 %19, i32* %6, align 4
  %20 = getelementptr inbounds [100 x i8], [100 x i8]* %3, i64 0, i64 0
  %21 = call i64 @strlen(i8* %20) #3
  %22 = trunc i64 %21 to i32
  store i32 %22, i32* %7, align 4
  %23 = load i32, i32* %6, align 4
  store i32 %23, i32* %8, align 4
  br label %24

24:                                               ; preds = %87, %15
  %25 = load i32, i32* %6, align 4
  %26 = icmp sge i32 %25, 0
  br i1 %26, label %27, label %92

27:                                               ; preds = %24
  %28 = load i32, i32* %7, align 4
  %29 = icmp sge i32 %28, 0
  br i1 %29, label %30, label %72

30:                                               ; preds = %27
  %31 = load i32, i32* %6, align 4
  %32 = sext i32 %31 to i64
  %33 = getelementptr inbounds [100 x i8], [100 x i8]* %2, i64 0, i64 %32
  %34 = load i8, i8* %33, align 1
  %35 = sext i8 %34 to i32
  %36 = load i32, i32* %7, align 4
  %37 = sext i32 %36 to i64
  %38 = getelementptr inbounds [100 x i8], [100 x i8]* %3, i64 0, i64 %37
  %39 = load i8, i8* %38, align 1
  %40 = sext i8 %39 to i32
  %41 = sub nsw i32 %35, %40
  %42 = load i32, i32* %6, align 4
  %43 = sext i32 %42 to i64
  %44 = getelementptr inbounds [100 x i32], [100 x i32]* %9, i64 0, i64 %43
  store i32 %41, i32* %44, align 4
  %45 = load i32, i32* %6, align 4
  %46 = sext i32 %45 to i64
  %47 = getelementptr inbounds [100 x i32], [100 x i32]* %9, i64 0, i64 %46
  %48 = load i32, i32* %47, align 4
  %49 = icmp slt i32 %48, 0
  br i1 %49, label %50, label %71

50:                                               ; preds = %30
  %51 = load i32, i32* %6, align 4
  %52 = sext i32 %51 to i64
  %53 = getelementptr inbounds [100 x i32], [100 x i32]* %9, i64 0, i64 %52
  %54 = load i32, i32* %53, align 4
  %55 = add nsw i32 10, %54
  %56 = load i32, i32* %6, align 4
  %57 = sext i32 %56 to i64
  %58 = getelementptr inbounds [100 x i32], [100 x i32]* %9, i64 0, i64 %57
  store i32 %55, i32* %58, align 4
  %59 = load i32, i32* %6, align 4
  %60 = sub nsw i32 %59, 1
  %61 = sext i32 %60 to i64
  %62 = getelementptr inbounds [100 x i8], [100 x i8]* %2, i64 0, i64 %61
  %63 = load i8, i8* %62, align 1
  %64 = sext i8 %63 to i32
  %65 = sub nsw i32 %64, 1
  %66 = trunc i32 %65 to i8
  %67 = load i32, i32* %6, align 4
  %68 = sub nsw i32 %67, 1
  %69 = sext i32 %68 to i64
  %70 = getelementptr inbounds [100 x i8], [100 x i8]* %2, i64 0, i64 %69
  store i8 %66, i8* %70, align 1
  br label %71

71:                                               ; preds = %50, %30
  br label %86

72:                                               ; preds = %27
  %73 = load i32, i32* %7, align 4
  %74 = icmp slt i32 %73, 0
  br i1 %74, label %75, label %85

75:                                               ; preds = %72
  %76 = load i32, i32* %6, align 4
  %77 = sext i32 %76 to i64
  %78 = getelementptr inbounds [100 x i8], [100 x i8]* %2, i64 0, i64 %77
  %79 = load i8, i8* %78, align 1
  %80 = sext i8 %79 to i32
  %81 = sub nsw i32 %80, 48
  %82 = load i32, i32* %6, align 4
  %83 = sext i32 %82 to i64
  %84 = getelementptr inbounds [100 x i32], [100 x i32]* %9, i64 0, i64 %83
  store i32 %81, i32* %84, align 4
  br label %85

85:                                               ; preds = %75, %72
  br label %86

86:                                               ; preds = %85, %71
  br label %87

87:                                               ; preds = %86
  %88 = load i32, i32* %6, align 4
  %89 = add nsw i32 %88, -1
  store i32 %89, i32* %6, align 4
  %90 = load i32, i32* %7, align 4
  %91 = add nsw i32 %90, -1
  store i32 %91, i32* %7, align 4
  br label %24

92:                                               ; preds = %24
  store i32 0, i32* %6, align 4
  br label %93

93:                                               ; preds = %103, %92
  %94 = load i32, i32* %6, align 4
  %95 = load i32, i32* %8, align 4
  %96 = icmp slt i32 %94, %95
  br i1 %96, label %97, label %106

97:                                               ; preds = %93
  %98 = load i32, i32* %6, align 4
  %99 = sext i32 %98 to i64
  %100 = getelementptr inbounds [100 x i32], [100 x i32]* %9, i64 0, i64 %99
  %101 = load i32, i32* %100, align 4
  %102 = call i32 (i8*, ...) @printf(i8* getelementptr inbounds ([3 x i8], [3 x i8]* @.str, i64 0, i64 0), i32 %101)
  br label %103

103:                                              ; preds = %97
  %104 = load i32, i32* %6, align 4
  %105 = add nsw i32 %104, 1
  store i32 %105, i32* %6, align 4
  br label %93

106:                                              ; preds = %93
  %107 = load i32, i32* %5, align 4
  %108 = add nsw i32 %107, 1
  store i32 %108, i32* %5, align 4
  %109 = call i32 (i8*, ...) @printf(i8* getelementptr inbounds ([2 x i8], [2 x i8]* @.str.2, i64 0, i64 0))
  br label %11

110:                                              ; preds = %11
  %111 = load i32, i32* %1, align 4
  ret i32 %111
}

declare dso_local i32 @__isoc99_scanf(i8*, ...) #1

; Function Attrs: nounwind readonly
declare dso_local i64 @strlen(i8*) #2

declare dso_local i32 @printf(i8*, ...) #1


!llvm.module.flags = !{!0}
!llvm.ident = !{!1}

!0 = !{i32 1, !"wchar_size", i32 4}
!1 = !{!"clang version 10.0.0-4ubuntu1 "}
